; Function Attrs: mustprogress uwtable
define hidden void @_ZN19OpenColorIO_v2_5dev8Platform11Utf16ToUtf8ERKNSt7__cxx1112basic_stringIwSt11char_traitsIwESaIwEEE(ptr dead_on_unwind noalias writable sret(%"class.std::__cxx11::basic_string") align 8 %0, ptr noundef nonnull readonly align 8 captures(none) dereferenceable(32) %1) local_unnamed_addr #0 personality ptr @__gxx_personality_v0 {
  %3 = getelementptr inbounds nuw i8, ptr %1, i64 8
  %4 = load i64, ptr %3, align 8, !tbaa !52
  %5 = icmp eq i64 %4, 0
  br i1 %5, label %6, label %9

6:                                                ; preds = %2
  %7 = getelementptr inbounds nuw i8, ptr %0, i64 16
  store ptr %7, ptr %0, align 8, !tbaa !4
  %8 = getelementptr inbounds nuw i8, ptr %0, i64 8
  store i64 0, ptr %8, align 8, !tbaa !10
  store i8 0, ptr %7, align 8, !tbaa !13
  ret void

9:                                                ; preds = %2
  %10 = tail call ptr @__cxa_allocate_exception(i64 16) #20
  invoke void @_ZN19OpenColorIO_v2_5dev9ExceptionC1EPKc(ptr noundef nonnull align 8 dereferenceable(16) %10, ptr noundef nonnull @.str.2)
          to label %11 unwind label %12

11:                                               ; preds = %9
  tail call void @__cxa_throw(ptr nonnull %10, ptr nonnull @_ZTIN19OpenColorIO_v2_5dev9ExceptionE, ptr nonnull @_ZN19OpenColorIO_v2_5dev9ExceptionD1Ev) #23
  unreachable

12:                                               ; preds = %9
  %13 = landingpad { ptr, i32 }
          cleanup
  tail call void @__cxa_free_exception(ptr nonnull %10) #20
  resume { ptr, i32 } %13
}